; ModuleID = '49/838.c'
source_filename = "49/838.c"
target datalayout = "e-m:e-p270:32:32-p271:32:32-p272:64:64-i64:64-f80:128-n8:16:32:64-S128"
target triple = "x86_64-pc-linux-gnu"

@.str = private unnamed_addr constant [3 x i8] c"%c\00", align 1
@.str.1 = private unnamed_addr constant [2 x i8] c"\0A\00", align 1

; Function Attrs: noinline nounwind uwtable
define dso_local i32 @main() #0 {
  %1 = alloca i32, align 4
  %2 = alloca i32, align 4
  %3 = alloca i32, align 4
  %4 = alloca i32, align 4
  %5 = alloca i32, align 4
  %6 = alloca [550 x i8], align 16
  store i32 0, i32* %1, align 4
  %7 = getelementptr inbounds [550 x i8], [550 x i8]* %6, i64 0, i64 0
  %8 = call i32 (i8*, ...) bitcast (i32 (...)* @gets to i32 (i8*, ...)*)(i8* %7)
  %9 = getelementptr inbounds [550 x i8], [550 x i8]* %6, i64 0, i64 0
  %10 = call i64 @strlen(i8* %9) #3
  %11 = trunc i64 %10 to i32
  store i32 %11, i32* %2, align 4
  %12 = load i32, i32* %2, align 4
  store i32 %12, i32* %3, align 4
  br label %13

13:                                               ; preds = %25, %0
  %14 = load i32, i32* %3, align 4
  %15 = icmp sge i32 %14, 1
  br i1 %15, label %16, label %28

16:                                               ; preds = %13
  %17 = load i32, i32* %3, align 4
  %18 = sub nsw i32 %17, 1
  %19 = sext i32 %18 to i64
  %20 = getelementptr inbounds [550 x i8], [550 x i8]* %6, i64 0, i64 %19
  %21 = load i8, i8* %20, align 1
  %22 = load i32, i32* %3, align 4
  %23 = sext i32 %22 to i64
  %24 = getelementptr inbounds [550 x i8], [550 x i8]* %6, i64 0, i64 %23
  store i8 %21, i8* %24, align 1
  br label %25

25:                                               ; preds = %16
  %26 = load i32, i32* %3, align 4
  %27 = add nsw i32 %26, -1
  store i32 %27, i32* %3, align 4
  br label %13

28:                                               ; preds = %13
  store i32 2, i32* %3, align 4
  br label %29

29:                                               ; preds = %102, %28
  %30 = load i32, i32* %3, align 4
  %31 = load i32, i32* %2, align 4
  %32 = icmp slt i32 %30, %31
  br i1 %32, label %33, label %105

33:                                               ; preds = %29
  store i32 1, i32* %4, align 4
  br label %34

34:                                               ; preds = %99, %33
  %35 = load i32, i32* %4, align 4
  %36 = load i32, i32* %2, align 4
  %37 = load i32, i32* %3, align 4
  %38 = sub nsw i32 %36, %37
  %39 = add nsw i32 %38, 1
  %40 = icmp sle i32 %35, %39
  br i1 %40, label %41, label %102

41:                                               ; preds = %34
  %42 = load i32, i32* %4, align 4
  store i32 %42, i32* %5, align 4
  br label %43

43:                                               ; preds = %69, %41
  %44 = load i32, i32* %5, align 4
  %45 = load i32, i32* %4, align 4
  %46 = load i32, i32* %3, align 4
  %47 = add nsw i32 %45, %46
  %48 = sub nsw i32 %47, 1
  %49 = icmp sle i32 %44, %48
  br i1 %49, label %50, label %72

50:                                               ; preds = %43
  %51 = load i32, i32* %5, align 4
  %52 = sext i32 %51 to i64
  %53 = getelementptr inbounds [550 x i8], [550 x i8]* %6, i64 0, i64 %52
  %54 = load i8, i8* %53, align 1
  %55 = sext i8 %54 to i32
  %56 = load i32, i32* %4, align 4
  %57 = mul nsw i32 2, %56
  %58 = load i32, i32* %3, align 4
  %59 = add nsw i32 %57, %58
  %60 = sub nsw i32 %59, 1
  %61 = load i32, i32* %5, align 4
  %62 = sub nsw i32 %60, %61
  %63 = sext i32 %62 to i64
  %64 = getelementptr inbounds [550 x i8], [550 x i8]* %6, i64 0, i64 %63
  %65 = load i8, i8* %64, align 1
  %66 = sext i8 %65 to i32
  %67 = icmp ne i32 %55, %66
  br i1 %67, label %68, label %69

68:                                               ; preds = %50
  br label %72

69:                                               ; preds = %50
  %70 = load i32, i32* %5, align 4
  %71 = add nsw i32 %70, 1
  store i32 %71, i32* %5, align 4
  br label %43

72:                                               ; preds = %68, %43
  %73 = load i32, i32* %5, align 4
  %74 = load i32, i32* %3, align 4
  %75 = load i32, i32* %4, align 4
  %76 = add nsw i32 %74, %75
  %77 = icmp eq i32 %73, %76
  br i1 %77, label %78, label %99

78:                                               ; preds = %72
  %79 = load i32, i32* %4, align 4
  store i32 %79, i32* %5, align 4
  br label %80

80:                                               ; preds = %94, %78
  %81 = load i32, i32* %5, align 4
  %82 = load i32, i32* %4, align 4
  %83 = load i32, i32* %3, align 4
  %84 = add nsw i32 %82, %83
  %85 = sub nsw i32 %84, 1
  %86 = icmp sle i32 %81, %85
  br i1 %86, label %87, label %97

87:                                               ; preds = %80
  %88 = load i32, i32* %5, align 4
  %89 = sext i32 %88 to i64
  %90 = getelementptr inbounds [550 x i8], [550 x i8]* %6, i64 0, i64 %89
  %91 = load i8, i8* %90, align 1
  %92 = sext i8 %91 to i32
  %93 = call i32 (i8*, ...) @printf(i8* getelementptr inbounds ([3 x i8], [3 x i8]* @.str, i64 0, i64 0), i32 %92)
  br label %94

94:                                               ; preds = %87
  %95 = load i32, i32* %5, align 4
  %96 = add nsw i32 %95, 1
  store i32 %96, i32* %5, align 4
  br label %80

97:                                               ; preds = %80
  %98 = call i32 (i8*, ...) @printf(i8* getelementptr inbounds ([2 x i8], [2 x i8]* @.str.1, i64 0, i64 0))
  br label %99

99:                                               ; preds = %97, %72
  %100 = load i32, i32* %4, align 4
  %101 = add nsw i32 %100, 1
  store i32 %101, i32* %4, align 4
  br label %34

102:                                              ; preds = %34
  %103 = load i32, i32* %3, align 4
  %104 = add nsw i32 %103, 1
  store i32 %104, i32* %3, align 4
  br label %29

105:                                              ; preds = %29
  ret i32 0
}

declare dso_local i32 @gets(...) #1

; Function Attrs: nounwind readonly
declare dso_local i64 @strlen(i8*) #2

declare dso_local i32 @printf(i8*, ...) #1


!llvm.module.flags = !{!0}
!llvm.ident = !{!1}

!0 = !{i32 1, !"wchar_size", i32 4}
!1 = !{!"clang version 10.0.0-4ubuntu1 "}
